; Function Attrs: mustprogress uwtable
define void @_ZNK32pxrInternal_v0_24__pxrReserved__10PcpNodeRef7GetSiteEv(ptr dead_on_unwind noalias nonnull writable sret(%"class.pxrInternal_v0_24__pxrReserved__::PcpLayerStackSite") align 8 %0, ptr noundef nonnull readonly align 8 captures(none) dereferenceable(16) %1) local_unnamed_addr #1 align 2 {
  %3 = load ptr, ptr %1, align 8
  %4 = getelementptr inbounds nuw i8, ptr %1, i64 8
  %5 = load i64, ptr %4, align 8
  %6 = getelementptr inbounds nuw i8, ptr %3, i64 16
  %7 = load ptr, ptr %6, align 8
  %8 = load ptr, ptr %7, align 8
  %9 = getelementptr inbounds %"struct.pxrInternal_v0_24__pxrReserved__::PcpPrimIndex_Graph::_Node", ptr %8, i64 %5
  %10 = getelementptr inbounds nuw i8, ptr %3, i64 32
  %11 = load ptr, ptr %10, align 8
  %12 = getelementptr inbounds %"struct.pxrInternal_v0_24__pxrReserved__::PcpPrimIndex_Graph::_UnsharedData", ptr %11, i64 %5
  tail call void @_ZN32pxrInternal_v0_24__pxrReserved__17PcpLayerStackSiteC1ERKNS_8TfRefPtrINS_13PcpLayerStackEEERKNS_7SdfPathE(ptr noundef nonnull align 8 dereferenceable(16) %0, ptr noundef nonnull align 8 dereferenceable(8) %9, ptr noundef nonnull align 4 dereferenceable(8) %12)
  ret void
}